target datalayout = "e-m:e-p270:32:32-p271:32:32-p272:64:64-i64:64-i128:128-f80:128-n8:16:32:64-S128"
target triple = "x86_64-pc-linux-gnu"

%"class.llvm::object::content_iterator" = type { %"class.llvm::object::SectionRef" }
%"class.llvm::object::SectionRef" = type { %"union.llvm::object::DataRefImpl", ptr }
%"union.llvm::object::DataRefImpl" = type { i64 }
%"class.llvm::object::content_iterator.39" = type { %"class.llvm::object::RelocationRef" }
%"class.llvm::object::RelocationRef" = type { %"union.llvm::object::DataRefImpl", ptr }

; Function Attrs: mustprogress nounwind uwtable
define linkonce_odr hidden noundef ptr @_Z4wrapPKN4llvm6object16content_iteratorINS0_13RelocationRefEEE(ptr noundef %0) #0 comdat {
  %2 = alloca ptr, align 8
  store ptr %0, ptr %2, align 8
  %3 = load ptr, ptr %2, align 8
  ret ptr %3
}

; Function Attrs: mustprogress nounwind uwtable
define linkonce_odr hidden { i64, ptr } @_ZNK4llvm6object10SectionRef16relocation_beginEv(ptr noundef nonnull align 8 dereferenceable(16) %0) #0 comdat align 2 {
  %2 = alloca %"class.llvm::object::content_iterator.39", align 8
  %3 = alloca ptr, align 8
  %4 = alloca %"union.llvm::object::DataRefImpl", align 8
  store ptr %0, ptr %3, align 8
  %5 = load ptr, ptr %3, align 8
  %6 = getelementptr inbounds nuw %"class.llvm::object::SectionRef", ptr %5, i32 0, i32 1
  %7 = load ptr, ptr %6, align 8
  %8 = getelementptr inbounds nuw %"class.llvm::object::SectionRef", ptr %5, i32 0, i32 0
  call void @llvm.memcpy.p0.p0.i64(ptr align 8 %4, ptr align 8 %8, i64 8, i1 false)
  %9 = getelementptr inbounds nuw %"union.llvm::object::DataRefImpl", ptr %4, i32 0, i32 0
  %10 = load i64, ptr %9, align 8
  %11 = load ptr, ptr %7, align 8
  %12 = getelementptr inbounds ptr, ptr %11, i64 34
  %13 = load ptr, ptr %12, align 8
  %14 = call { i64, ptr } %13(ptr noundef nonnull align 8 dereferenceable(48) %7, i64 %10)
  %15 = getelementptr inbounds nuw %"class.llvm::object::content_iterator.39", ptr %2, i32 0, i32 0
  %16 = getelementptr inbounds nuw { i64, ptr }, ptr %15, i32 0, i32 0
  %17 = extractvalue { i64, ptr } %14, 0
  store i64 %17, ptr %16, align 8
  %18 = getelementptr inbounds nuw { i64, ptr }, ptr %15, i32 0, i32 1
  %19 = extractvalue { i64, ptr } %14, 1
  store ptr %19, ptr %18, align 8
  %20 = getelementptr inbounds nuw %"class.llvm::object::content_iterator.39", ptr %2, i32 0, i32 0
  %21 = load { i64, ptr }, ptr %20, align 8
  ret { i64, ptr } %21
}

; Function Attrs: mustprogress nounwind uwtable
define linkonce_odr hidden noundef ptr @_ZNK4llvm6object16content_iteratorINS0_10SectionRefEEptEv(ptr noundef nonnull align 8 dereferenceable(16) %0) #0 comdat align 2 {
  %2 = alloca ptr, align 8
  store ptr %0, ptr %2, align 8
  %3 = load ptr, ptr %2, align 8
  %4 = getelementptr inbounds nuw %"class.llvm::object::content_iterator", ptr %3, i32 0, i32 0
  ret ptr %4
}

; Function Attrs: mustprogress nounwind uwtable
define linkonce_odr hidden noundef ptr @_Z6unwrapP25LLVMOpaqueSectionIterator(ptr noundef %0) #0 comdat {
  %2 = alloca ptr, align 8
  store ptr %0, ptr %2, align 8
  %3 = load ptr, ptr %2, align 8
  ret ptr %3
}

; Function Attrs: mustprogress nounwind uwtable
define dso_local ptr @LLVMGetRelocations(ptr noundef %0) #0 {
  %2 = alloca ptr, align 8
  %3 = alloca %"class.llvm::object::content_iterator.39", align 8
  store ptr %0, ptr %2, align 8
  %4 = load ptr, ptr %2, align 8
  %5 = call noundef ptr @_Z6unwrapP25LLVMOpaqueSectionIterator(ptr noundef %4)
  %6 = call noundef ptr @_ZNK4llvm6object16content_iteratorINS0_10SectionRefEEptEv(ptr noundef nonnull align 8 dereferenceable(16) %5)
  %7 = call { i64, ptr } @_ZNK4llvm6object10SectionRef16relocation_beginEv(ptr noundef nonnull align 8 dereferenceable(16) %6)
  %8 = getelementptr inbounds nuw %"class.llvm::object::content_iterator.39", ptr %3, i32 0, i32 0
  %9 = getelementptr inbounds nuw { i64, ptr }, ptr %8, i32 0, i32 0
  %10 = extractvalue { i64, ptr } %7, 0
  store i64 %10, ptr %9, align 8
  %11 = getelementptr inbounds nuw { i64, ptr }, ptr %8, i32 0, i32 1
  %12 = extractvalue { i64, ptr } %7, 1
  store ptr %12, ptr %11, align 8
  %13 = call noalias noundef nonnull ptr @_Znwm(i64 noundef 16) #12
  call void @llvm.memcpy.p0.p0.i64(ptr align 16 %13, ptr align 8 %3, i64 16, i1 false)
  %14 = call noundef ptr @_Z4wrapPKN4llvm6object16content_iteratorINS0_13RelocationRefEEE(ptr noundef %13)
  ret ptr %14
}