; Function Attrs: mustprogress nounwind uwtable
define dso_local noundef nonnull ptr @LLVMGetRelocations(ptr nocapture noundef readonly %0) local_unnamed_addr #0 {
  %2 = getelementptr inbounds nuw i8, ptr %0, i64 8
  %3 = load ptr, ptr %2, align 8
  %.sroa.0.0.copyload.i = load i64, ptr %0, align 8
  %4 = load ptr, ptr %3, align 8
  %5 = getelementptr inbounds i8, ptr %4, i64 272
  %6 = load ptr, ptr %5, align 8
  %7 = tail call { i64, ptr } %6(ptr noundef nonnull align 8 dereferenceable(48) %3, i64 %.sroa.0.0.copyload.i) #17
  %8 = extractvalue { i64, ptr } %7, 0
  %9 = extractvalue { i64, ptr } %7, 1
  %10 = tail call noalias noundef nonnull dereferenceable(16) ptr @_Znwm(i64 noundef 16) #18
  store i64 %8, ptr %10, align 16
  %.sroa.2.0..sroa_idx = getelementptr inbounds i8, ptr %10, i64 8
  store ptr %9, ptr %.sroa.2.0..sroa_idx, align 8
  ret ptr %10
}